Certificate:
    Data:
        Version: 3 (0x2)
        Serial Number:
            ce:38:de:38:3b:45:cb:a3
    Signature Algorithm: sha1WithRSAEncryption
        Issuer: C=US, ST=CA, O=Blockchain, CN=SYNRC
        Validity
            Not Before: Mar 27 23:59:26 2019 GMT
            Not After : Mar 24 23:59:26 2029 GMT
        Subject: C=US, ST=CA, O=Blockchain, CN=SYNRC
        Subject Public Key Info:
            Public Key Algorithm: rsaEncryption
                Public-Key: (1024 bit)
                Modulus:
                    00:af:14:25:96:fe:87:e5:a9:4d:84:01:46:5e:a5:
                    62:f0:fc:33:7a:8e:92:c3:3b:1d:21:12:b1:bd:27:
                    50:74:16:1d:a2:3a:1d:e7:c4:3d:40:e7:4d:c8:fc:
                    73:b0:3b:91:99:f3:c9:fb:e4:4b:df:a1:a2:1a:cb:
                    02:ec:6e:f1:44:e7:8a:3e:92:5d:6b:fb:b8:46:e3:
                    7b:46:37:08:90:f8:a5:e0:8d:ab:5e:1b:44:03:81:
                    a3:7e:ed:5f:ae:50:de:57:95:86:5f:f6:9c:95:2c:
                    ff:22:0a:8f:a7:ee:4e:7f:67:69:69:46:51:21:7c:
                    e7:f6:57:8f:43:4f:e1:ed:7b
                Exponent: 65537 (0x10001)
        X509v3 extensions:
            X509v3 Basic Constraints: 
                CA:FALSE
            Netscape Comment: 
                OpenSSL Generated Certificate
            X509v3 Subject Key Identifier: 
                68:01:DD:36:EB:BD:EA:FE:49:E4:BE:5C:56:29:88:E8:46:F0:8D:FD
            X509v3 Authority Key Identifier: 
                keyid:68:01:DD:36:EB:BD:EA:FE:49:E4:BE:5C:56:29:88:E8:46:F0:8D:FD

    Signature Algorithm: sha1WithRSAEncryption
         2d:c0:4d:a4:c4:b6:b7:4a:6a:61:5b:bc:5e:32:d6:2b:45:6a:
         2d:bc:2f:e7:f2:24:72:43:a2:ac:0d:ce:56:4c:25:eb:bd:27:
         77:b8:70:a7:b4:40:7a:ff:ad:b5:7d:32:56:5a:92:f4:30:71:
         d9:e8:8a:02:0d:47:19:c2:db:07:49:dc:d8:14:1a:ff:95:37:
         76:6c:35:ae:f6:ab:61:aa:45:31:f8:e2:be:e7:c8:09:d0:d8:
         c6:7f:35:1e:25:a5:09:3d:7b:73:08:f8:82:7b:40:15:ee:52:
         9e:c6:f0:f9:c1:ec:f1:af:58:71:14:54:7c:ca:98:26:26:18:
         57:fa
-----BEGIN CERTIFICATE-----
MIICdzCCAeCgAwIBAgIJAM443jg7RcujMA0GCSqGSIb3DQEBBQUAMD8xCzAJBgNV
BAYTAlVTMQswCQYDVQQIDAJDQTETMBEGA1UECgwKQmxvY2tjaGFpbjEOMAwGA1UE
AwwFU1lOUkMwHhcNMTkwMzI3MjM1OTI2WhcNMjkwMzI0MjM1OTI2WjA/MQswCQYD
VQQGEwJVUzELMAkGA1UECAwCQ0ExEzARBgNVBAoMCkJsb2NrY2hhaW4xDjAMBgNV
BAMMBVNZTlJDMIGfMA0GCSqGSIb3DQEBAQUAA4GNADCBiQKBgQCvFCWW/oflqU2E
AUZepWLw/DN6jpLDOx0hErG9J1B0Fh2iOh3nxD1A503I/HOwO5GZ88n75EvfoaIa
ywLsbvFE54o+kl1r+7hG43tGNwiQ+KXgjateG0QDgaN+7V+uUN5XlYZf9pyVLP8i
Co+n7k5/Z2lpRlEhfOf2V49DT+HtewIDAQABo3sweTAJBgNVHRMEAjAAMCwGCWCG
SAGG+EIBDQQfFh1PcGVuU1NMIEdlbmVyYXRlZCBDZXJ0aWZpY2F0ZTAdBgNVHQ4E
FgQUaAHdNuu96v5J5L5cVimI6Ebwjf0wHwYDVR0jBBgwFoAUaAHdNuu96v5J5L5c
VimI6Ebwjf0wDQYJKoZIhvcNAQEFBQADgYEALcBNpMS2t0pqYVu8XjLWK0VqLbwv
5/IkckOirA3OVkwl670nd7hwp7RAev+ttX0yVlqS9DBx2eiKAg1HGcLbB0nc2BQa
/5U3dmw1rvarYapFMfjivufICdDYxn81HiWlCT17cwj4gntAFe5Snsbw+cHs8a9Y
cRRUfMqYJiYYV/o=
-----END CERTIFICATE-----
-----BEGIN CERTIFICATE-----
MIICVTCCAb6gAwIBAgIJAM443jg7RcunMA0GCSqGSIb3DQEBBQUAMD8xCzAJBgNV
BAYTAlVTMQswCQYDVQQIDAJDQTETMBEGA1UECgwKQmxvY2tjaGFpbjEOMAwGA1UE
AwwFU1lOUkMwHhcNMTkwMzI3MjM1OTM2WhcNMjkwMzI0MjM1OTM2WjBDMQswCQYD
VQQGEwJVUzELMAkGA1UECAwCQ0ExEzARBgNVBAoMCkJsb2NrY2hhaW4xEjAQBgNV
BAMMCWxvY2FsaG9zdDCBnzANBgkqhkiG9w0BAQEFAAOBjQAwgYkCgYEA3i++C3My
lYabCgIj31yepiquPQF2YPDnq6qfC3LZ5B2qux1AMl170h/0dOxSULYAyJEo1F1t
Afcf+23ZaJgChWveG3OF5FZ25XZi7l1DCKNa+EA8zC2J61uB3qSjs+h0/xYKExHj
iwJgJjCwPnTAnvfTXGqiyegxWjnstd3HyV0CAwEAAaNVMFMwUQYDVR0RBEowSIIJ
bG9jYWxob3N0gg13d3cubG9jYWxob3N0ggxteC5sb2NhbGhvc3SCDnhtcHAubG9j
YWxob3N0gg5tcXR0LmxvY2FsaG9zdDANBgkqhkiG9w0BAQUFAAOBgQCPsBfae0vr
0iNFWRV2ohjET4R7rhSoFgulupRPoz48/smGwnvvGRxNHBei6qm7TCvMw48W2KJw
uoYwtZjusHZU5y7B+/guuxJ9nuiVWyLjOQWFzcXi5nzvjMxmgX8NiOH3eA1/pvSo
1H4wNYMcM8P7Bq0JvCnXa+4i0B4GiQLJ+A==
-----END CERTIFICATE-----
